target datalayout = "e-m:e-p270:32:32-p271:32:32-p272:64:64-i64:64-i128:128-f80:128-n8:16:32:64-S128"
target triple = "x86_64-pc-linux-gnu"

%struct.Int128_ = type { i64, i64 }
%struct.Type_ = type { i32, ptr, ptr, ptr, %union.anon.85, ptr, ptr, %union.anon.87 }
%union.anon.85 = type { ptr }
%union.anon.87 = type { %struct.TypeFunction }
%struct.TypeFunction = type { ptr, ptr, ptr }

; Function Attrs: nounwind uwtable
define dso_local i32 @i128_ucomp(i64 %0, i64 %1, i64 %2, i64 %3) #0 {
  %5 = alloca i32, align 4
  %6 = alloca %struct.Int128_, align 8
  %7 = alloca %struct.Int128_, align 8
  %8 = getelementptr inbounds { i64, i64 }, ptr %6, i32 0, i32 0
  store i64 %0, ptr %8, align 8
  %9 = getelementptr inbounds { i64, i64 }, ptr %6, i32 0, i32 1
  store i64 %1, ptr %9, align 8
  %10 = getelementptr inbounds { i64, i64 }, ptr %7, i32 0, i32 0
  store i64 %2, ptr %10, align 8
  %11 = getelementptr inbounds { i64, i64 }, ptr %7, i32 0, i32 1
  store i64 %3, ptr %11, align 8
  %12 = getelementptr inbounds %struct.Int128_, ptr %6, i32 0, i32 0
  %13 = load i64, ptr %12, align 8
  %14 = getelementptr inbounds %struct.Int128_, ptr %7, i32 0, i32 0
  %15 = load i64, ptr %14, align 8
  %16 = icmp ugt i64 %13, %15
  br i1 %16, label %17, label %18

17:                                               ; preds = %4
  store i32 1, ptr %5, align 4
  br label %39

18:                                               ; preds = %4
  %19 = getelementptr inbounds %struct.Int128_, ptr %6, i32 0, i32 0
  %20 = load i64, ptr %19, align 8
  %21 = getelementptr inbounds %struct.Int128_, ptr %7, i32 0, i32 0
  %22 = load i64, ptr %21, align 8
  %23 = icmp ult i64 %20, %22
  br i1 %23, label %24, label %25

24:                                               ; preds = %18
  store i32 -1, ptr %5, align 4
  br label %39

25:                                               ; preds = %18
  %26 = getelementptr inbounds %struct.Int128_, ptr %6, i32 0, i32 1
  %27 = load i64, ptr %26, align 8
  %28 = getelementptr inbounds %struct.Int128_, ptr %7, i32 0, i32 1
  %29 = load i64, ptr %28, align 8
  %30 = icmp eq i64 %27, %29
  br i1 %30, label %31, label %32

31:                                               ; preds = %25
  store i32 0, ptr %5, align 4
  br label %39

32:                                               ; preds = %25
  %33 = getelementptr inbounds %struct.Int128_, ptr %6, i32 0, i32 1
  %34 = load i64, ptr %33, align 8
  %35 = getelementptr inbounds %struct.Int128_, ptr %7, i32 0, i32 1
  %36 = load i64, ptr %35, align 8
  %37 = icmp ugt i64 %34, %36
  %38 = select i1 %37, i32 1, i32 -1
  store i32 %38, ptr %5, align 4
  br label %39

39:                                               ; preds = %32, %31, %24, %17
  %40 = load i32, ptr %5, align 4
  ret i32 %40
}

; Function Attrs: nounwind uwtable
define dso_local i32 @i128_scomp(i64 %0, i64 %1, i64 %2, i64 %3) #0 {
  %5 = alloca i32, align 4
  %6 = alloca %struct.Int128_, align 8
  %7 = alloca %struct.Int128_, align 8
  %8 = alloca i8, align 1
  %9 = alloca i8, align 1
  %10 = getelementptr inbounds { i64, i64 }, ptr %6, i32 0, i32 0
  store i64 %0, ptr %10, align 8
  %11 = getelementptr inbounds { i64, i64 }, ptr %6, i32 0, i32 1
  store i64 %1, ptr %11, align 8
  %12 = getelementptr inbounds { i64, i64 }, ptr %7, i32 0, i32 0
  store i64 %2, ptr %12, align 8
  %13 = getelementptr inbounds { i64, i64 }, ptr %7, i32 0, i32 1
  store i64 %3, ptr %13, align 8
  %14 = getelementptr inbounds %struct.Int128_, ptr %6, i32 0, i32 0
  %15 = load i64, ptr %14, align 8
  %16 = and i64 %15, -9223372036854775808
  %17 = icmp ne i64 %16, 0
  %18 = zext i1 %17 to i8
  store i8 %18, ptr %8, align 1
  %19 = getelementptr inbounds %struct.Int128_, ptr %7, i32 0, i32 0
  %20 = load i64, ptr %19, align 8
  %21 = and i64 %20, -9223372036854775808
  %22 = icmp ne i64 %21, 0
  %23 = zext i1 %22 to i8
  store i8 %23, ptr %9, align 1
  %24 = load i8, ptr %8, align 1
  %25 = trunc i8 %24 to i1
  %26 = zext i1 %25 to i32
  %27 = load i8, ptr %9, align 1
  %28 = trunc i8 %27 to i1
  %29 = zext i1 %28 to i32
  %30 = icmp ne i32 %26, %29
  br i1 %30, label %31, label %35

31:                                               ; preds = %4
  %32 = load i8, ptr %8, align 1
  %33 = trunc i8 %32 to i1
  %34 = select i1 %33, i32 -1, i32 1
  store i32 %34, ptr %5, align 4
  br label %63

35:                                               ; preds = %4
  %36 = getelementptr inbounds %struct.Int128_, ptr %6, i32 0, i32 0
  %37 = load i64, ptr %36, align 8
  %38 = getelementptr inbounds %struct.Int128_, ptr %7, i32 0, i32 0
  %39 = load i64, ptr %38, align 8
  %40 = icmp ugt i64 %37, %39
  br i1 %40, label %41, label %42

41:                                               ; preds = %35
  store i32 1, ptr %5, align 4
  br label %63

42:                                               ; preds = %35
  %43 = getelementptr inbounds %struct.Int128_, ptr %6, i32 0, i32 0
  %44 = load i64, ptr %43, align 8
  %45 = getelementptr inbounds %struct.Int128_, ptr %7, i32 0, i32 0
  %46 = load i64, ptr %45, align 8
  %47 = icmp ult i64 %44, %46
  br i1 %47, label %48, label %49

48:                                               ; preds = %42
  store i32 -1, ptr %5, align 4
  br label %63

49:                                               ; preds = %42
  %50 = getelementptr inbounds %struct.Int128_, ptr %6, i32 0, i32 1
  %51 = load i64, ptr %50, align 8
  %52 = getelementptr inbounds %struct.Int128_, ptr %7, i32 0, i32 1
  %53 = load i64, ptr %52, align 8
  %54 = icmp eq i64 %51, %53
  br i1 %54, label %55, label %56

55:                                               ; preds = %49
  store i32 0, ptr %5, align 4
  br label %63

56:                                               ; preds = %49
  %57 = getelementptr inbounds %struct.Int128_, ptr %6, i32 0, i32 1
  %58 = load i64, ptr %57, align 8
  %59 = getelementptr inbounds %struct.Int128_, ptr %7, i32 0, i32 1
  %60 = load i64, ptr %59, align 8
  %61 = icmp ugt i64 %58, %60
  %62 = select i1 %61, i32 1, i32 -1
  store i32 %62, ptr %5, align 4
  br label %63

63:                                               ; preds = %56, %55, %48, %41, %31
  %64 = load i32, ptr %5, align 4
  ret i32 %64
}

; Function Attrs: nounwind uwtable
define dso_local i32 @i128_comp(i64 %0, i64 %1, i64 %2, i64 %3, ptr noundef %4) #0 {
  %6 = alloca i1, align 1
  %7 = alloca ptr, align 8
  %8 = alloca i32, align 4
  %9 = alloca %struct.Int128_, align 8
  %10 = alloca %struct.Int128_, align 8
  %11 = alloca ptr, align 8
  %12 = getelementptr inbounds { i64, i64 }, ptr %9, i32 0, i32 0
  store i64 %0, ptr %12, align 8
  %13 = getelementptr inbounds { i64, i64 }, ptr %9, i32 0, i32 1
  store i64 %1, ptr %13, align 8
  %14 = getelementptr inbounds { i64, i64 }, ptr %10, i32 0, i32 0
  store i64 %2, ptr %14, align 8
  %15 = getelementptr inbounds { i64, i64 }, ptr %10, i32 0, i32 1
  store i64 %3, ptr %15, align 8
  store ptr %4, ptr %11, align 8
  %16 = load ptr, ptr %11, align 8
  store ptr %16, ptr %7, align 8
  %17 = load ptr, ptr %7, align 8
  %18 = load i32, ptr %17, align 8
  store i32 %18, ptr %8, align 4
  %19 = load i32, ptr %8, align 4
  %20 = icmp uge i32 %19, 3
  br i1 %20, label %21, label %25

21:                                               ; preds = %5
  %22 = load i32, ptr %8, align 4
  %23 = icmp ult i32 %22, 8
  br i1 %23, label %24, label %25

24:                                               ; preds = %21
  store i1 true, ptr %6, align 1
  br label %41

25:                                               ; preds = %21, %5
  %26 = load i32, ptr %8, align 4
  %27 = icmp ne i32 %26, 37
  br i1 %27, label %28, label %29

28:                                               ; preds = %25
  store i1 false, ptr %6, align 1
  br label %41

29:                                               ; preds = %25
  %30 = load ptr, ptr %7, align 8
  %31 = getelementptr inbounds %struct.Type_, ptr %30, i32 0, i32 7
  %32 = load ptr, ptr %31, align 8
  %33 = load i32, ptr %32, align 8
  store i32 %33, ptr %8, align 4
  %34 = load i32, ptr %8, align 4
  %35 = icmp uge i32 %34, 3
  br i1 %35, label %36, label %39

36:                                               ; preds = %29
  %37 = load i32, ptr %8, align 4
  %38 = icmp ult i32 %37, 8
  br label %39

39:                                               ; preds = %36, %29
  %40 = phi i1 [ false, %29 ], [ %38, %36 ]
  store i1 %40, ptr %6, align 1
  br label %41

41:                                               ; preds = %39, %28, %24
  %42 = load i1, ptr %6, align 1
  br i1 %42, label %43, label %53

43:                                               ; preds = %41
  %44 = getelementptr inbounds { i64, i64 }, ptr %9, i32 0, i32 0
  %45 = load i64, ptr %44, align 8
  %46 = getelementptr inbounds { i64, i64 }, ptr %9, i32 0, i32 1
  %47 = load i64, ptr %46, align 8
  %48 = getelementptr inbounds { i64, i64 }, ptr %10, i32 0, i32 0
  %49 = load i64, ptr %48, align 8
  %50 = getelementptr inbounds { i64, i64 }, ptr %10, i32 0, i32 1
  %51 = load i64, ptr %50, align 8
  %52 = call i32 @i128_scomp(i64 %45, i64 %47, i64 %49, i64 %51)
  br label %63

53:                                               ; preds = %41
  %54 = getelementptr inbounds { i64, i64 }, ptr %9, i32 0, i32 0
  %55 = load i64, ptr %54, align 8
  %56 = getelementptr inbounds { i64, i64 }, ptr %9, i32 0, i32 1
  %57 = load i64, ptr %56, align 8
  %58 = getelementptr inbounds { i64, i64 }, ptr %10, i32 0, i32 0
  %59 = load i64, ptr %58, align 8
  %60 = getelementptr inbounds { i64, i64 }, ptr %10, i32 0, i32 1
  %61 = load i64, ptr %60, align 8
  %62 = call i32 @i128_ucomp(i64 %55, i64 %57, i64 %59, i64 %61)
  br label %63

63:                                               ; preds = %53, %43
  %64 = phi i32 [ %52, %43 ], [ %62, %53 ]
  ret i32 %64
}