; Function Attrs: mustprogress nofree norecurse nosync nounwind willreturn memory(read, inaccessiblemem: none) uwtable
define dso_local range(i32 -1, 2) i32 @i128_comp(i64 %0, i64 %1, i64 %2, i64 %3, ptr noundef readonly captures(none) %4) local_unnamed_addr #9 {
  %6 = load i32, ptr %4, align 8
  %7 = add i32 %6, -3
  %or.cond = icmp ult i32 %7, 5
  br i1 %or.cond, label %.critedge, label %8

8:                                                ; preds = %5
  %.not = icmp eq i32 %6, 37
  br i1 %.not, label %9, label %.critedge16

9:                                                ; preds = %8
  %10 = getelementptr inbounds nuw i8, ptr %4, i64 56
  %11 = load ptr, ptr %10, align 8
  %12 = load i32, ptr %11, align 8
  %13 = add i32 %12, -3
  %14 = icmp ult i32 %13, 5
  br i1 %14, label %.critedge, label %.critedge16

.critedge:                                        ; preds = %5, %9
  %.not.unshifted.i = xor i64 %2, %0
  %.not.i = icmp sgt i64 %.not.unshifted.i, -1
  br i1 %.not.i, label %18, label %15

15:                                               ; preds = %.critedge
  %16 = icmp slt i64 %0, 0
  %17 = select i1 %16, i32 -1, i32 1
  br label %i128_scomp.exit

18:                                               ; preds = %.critedge
  %19 = icmp ugt i64 %0, %2
  br i1 %19, label %i128_scomp.exit, label %20

20:                                               ; preds = %18
  %21 = icmp ult i64 %0, %2
  br i1 %21, label %i128_scomp.exit, label %22

22:                                               ; preds = %20
  %23 = icmp eq i64 %1, %3
  br i1 %23, label %i128_scomp.exit, label %24

24:                                               ; preds = %22
  %25 = icmp ugt i64 %1, %3
  %26 = select i1 %25, i32 1, i32 -1
  br label %i128_scomp.exit

.critedge16:                                      ; preds = %8, %9
  %27 = icmp ugt i64 %0, %2
  br i1 %27, label %i128_scomp.exit, label %28

28:                                               ; preds = %.critedge16
  %29 = icmp ult i64 %0, %2
  br i1 %29, label %i128_scomp.exit, label %30

30:                                               ; preds = %28
  %31 = icmp eq i64 %1, %3
  br i1 %31, label %i128_scomp.exit, label %32

32:                                               ; preds = %30
  %33 = icmp ugt i64 %1, %3
  %34 = select i1 %33, i32 1, i32 -1
  br label %i128_scomp.exit

i128_scomp.exit:                                  ; preds = %32, %30, %28, %.critedge16, %24, %22, %20, %18, %15
  %35 = phi i32 [ %17, %15 ], [ %26, %24 ], [ 1, %18 ], [ -1, %20 ], [ 0, %22 ], [ %34, %32 ], [ 1, %.critedge16 ], [ -1, %28 ], [ 0, %30 ]
  ret i32 %35
}